target datalayout = "e-m:e-p270:32:32-p271:32:32-p272:64:64-i64:64-i128:128-f80:128-n8:16:32:64-S128"
target triple = "x86_64-unknown-linux-gnu"

%struct.QTailQLink = type { ptr, ptr }
%struct.Object = type { ptr, ptr, ptr, i32, ptr }
%struct.AHCIDevice = type { %struct.IDEDMA, %struct.IDEBus, i32, i32, i32, %struct.AHCIPortRegs, ptr, ptr, ptr, ptr, i8, i32, i8, ptr, [32 x %struct.NCQTransferState], %struct.MemReentrancyGuard }
%struct.IDEDMA = type { ptr, %struct.QEMUIOVector, ptr }
%struct.QEMUIOVector = type { ptr, i32, %union.anon.3 }
%union.anon.3 = type { %struct.anon.4 }
%struct.anon.4 = type { i32, %struct.iovec }
%struct.iovec = type { ptr, i64 }
%struct.IDEBus = type { %struct.BusState, ptr, ptr, [2 x %struct.IDEState], ptr, i32, i32, ptr, i8, i8, ptr, i32, i8, i64, i32, %struct.PortioList, %struct.PortioList, ptr }
%struct.BusState = type { %struct.Object, ptr, ptr, ptr, i32, i8, i8, i32, %union.BusChildHead, %struct.BusStateEntry, %struct.ResettableState }
%union.BusChildHead = type { %struct.QTailQLink }
%struct.BusStateEntry = type { ptr, ptr }
%struct.ResettableState = type { i32, i8, i8 }
%struct.IDEState = type { ptr, i8, i32, i32, i32, i32, i32, i32, i32, i64, i32, i32, [512 x i8], i32, [21 x i8], [41 x i8], i64, i8, i8, i32, i8, i8, i8, i8, i8, i8, i8, i8, i8, i8, i8, i8, i8, ptr, [9 x i8], %struct.unreported_events, i8, i8, i8, i8, i8, i32, i32, i32, i32, i32, i32, %struct.BlockAcctCookie, ptr, %struct.QEMUIOVector, %struct.anon.6, i64, i32, %struct.QEMUSGList, i32, ptr, ptr, ptr, ptr, i32, i32, i32, i8, ptr, i32, i8, i32, ptr, i32, i32, i8, i8, i32, i8, ptr, i32 }
%struct.unreported_events = type { i8, i8 }
%struct.BlockAcctCookie = type { i64, i64, i32 }
%struct.anon.6 = type { ptr }
%struct.QEMUSGList = type { ptr, i32, i32, i64, ptr, ptr }
%struct.PortioList = type { ptr, ptr, ptr, i32, ptr, ptr, ptr, i8 }
%struct.AHCIPortRegs = type { i32, i32, i32, i32, i32, i32, i32, i32, i32, i32, i32, i32, i32, i32, i32, i32 }
%struct.NCQTransferState = type { ptr, ptr, ptr, %struct.QEMUSGList, %struct.BlockAcctCookie, i32, i64, i8, i8, i8, i8, i8 }
%struct.MemReentrancyGuard = type { i8 }
%struct.timeval = type { i64, i64 }

@trace_events_enabled_count = external global i32, align 4
@message_with_timestamp = external global i8, align 1
@qemu_loglevel = external global i32, align 4
@_TRACE_AHCI_DMA_PREPARE_BUF_FAIL_DSTATE = external global i16, align 2
@.str.180 = private unnamed_addr constant [79 x i8] c"%d@%zu.%06zu:ahci_dma_prepare_buf_fail ahci(%p)[%d]: sglist population failed\0A\00", align 1
@.str.181 = private unnamed_addr constant [66 x i8] c"ahci_dma_prepare_buf_fail ahci(%p)[%d]: sglist population failed\0A\00", align 1
@_TRACE_AHCI_DMA_PREPARE_BUF_DSTATE = external global i16, align 2
@.str.182 = private unnamed_addr constant [82 x i8] c"%d@%zu.%06zu:ahci_dma_prepare_buf ahci(%p)[%d]: prepare buf limit=%d prepared=%d\0A\00", align 1
@.str.183 = private unnamed_addr constant [69 x i8] c"ahci_dma_prepare_buf ahci(%p)[%d]: prepare buf limit=%d prepared=%d\0A\00", align 1

; Function Attrs: nounwind sspstrong uwtable
define internal zeroext i1 @qemu_loglevel_mask(i32 noundef %mask) #0 {
entry:
  %mask.addr = alloca i32, align 4
  store i32 %mask, ptr %mask.addr, align 4
  %0 = load i32, ptr @qemu_loglevel, align 4
  %1 = load i32, ptr %mask.addr, align 4
  %and = and i32 %0, %1
  %cmp = icmp ne i32 %and, 0
  ret i1 %cmp
}

; Function Attrs: nounwind sspstrong uwtable
define internal void @_nocheck__trace_ahci_dma_prepare_buf(ptr noundef %s, i32 noundef %port, i32 noundef %io_buffer_size, i32 noundef %limit) #0 {
entry:
  %s.addr = alloca ptr, align 8
  %port.addr = alloca i32, align 4
  %io_buffer_size.addr = alloca i32, align 4
  %limit.addr = alloca i32, align 4
  %_now = alloca %struct.timeval, align 8
  store ptr %s, ptr %s.addr, align 8
  store i32 %port, ptr %port.addr, align 4
  store i32 %io_buffer_size, ptr %io_buffer_size.addr, align 4
  store i32 %limit, ptr %limit.addr, align 4
  %0 = load i32, ptr @trace_events_enabled_count, align 4
  %tobool = icmp ne i32 %0, 0
  %lnot = xor i1 %tobool, true
  %lnot1 = xor i1 %lnot, true
  %lnot.ext = zext i1 %lnot1 to i32
  %conv = sext i32 %lnot.ext to i64
  %tobool2 = icmp ne i64 %conv, 0
  br i1 %tobool2, label %land.lhs.true, label %if.end11

land.lhs.true:                                    ; preds = %entry
  %1 = load i16, ptr @_TRACE_AHCI_DMA_PREPARE_BUF_DSTATE, align 2
  %conv3 = zext i16 %1 to i32
  %tobool4 = icmp ne i32 %conv3, 0
  br i1 %tobool4, label %land.lhs.true5, label %if.end11

land.lhs.true5:                                   ; preds = %land.lhs.true
  %call = call zeroext i1 @qemu_loglevel_mask(i32 noundef 32768)
  br i1 %call, label %if.then, label %if.end11

if.then:                                          ; preds = %land.lhs.true5
  %2 = load i8, ptr @message_with_timestamp, align 1
  %tobool7 = trunc i8 %2 to i1
  br i1 %tobool7, label %if.then8, label %if.else

if.then8:                                         ; preds = %if.then
  %call9 = call i32 @gettimeofday(ptr noundef %_now, ptr noundef null) #10
  %call10 = call i32 @qemu_get_thread_id()
  %tv_sec = getelementptr inbounds %struct.timeval, ptr %_now, i32 0, i32 0
  %3 = load i64, ptr %tv_sec, align 8
  %tv_usec = getelementptr inbounds %struct.timeval, ptr %_now, i32 0, i32 1
  %4 = load i64, ptr %tv_usec, align 8
  %5 = load ptr, ptr %s.addr, align 8
  %6 = load i32, ptr %port.addr, align 4
  %7 = load i32, ptr %io_buffer_size.addr, align 4
  %8 = load i32, ptr %limit.addr, align 4
  call void (ptr, ...) @qemu_log(ptr noundef @.str.182, i32 noundef %call10, i64 noundef %3, i64 noundef %4, ptr noundef %5, i32 noundef %6, i32 noundef %7, i32 noundef %8)
  br label %if.end

if.else:                                          ; preds = %if.then
  %9 = load ptr, ptr %s.addr, align 8
  %10 = load i32, ptr %port.addr, align 4
  %11 = load i32, ptr %io_buffer_size.addr, align 4
  %12 = load i32, ptr %limit.addr, align 4
  call void (ptr, ...) @qemu_log(ptr noundef @.str.183, ptr noundef %9, i32 noundef %10, i32 noundef %11, i32 noundef %12)
  br label %if.end

if.end:                                           ; preds = %if.else, %if.then8
  br label %if.end11

if.end11:                                         ; preds = %if.end, %land.lhs.true5, %land.lhs.true, %entry
  ret void
}

; Function Attrs: nounwind sspstrong uwtable
define internal void @_nocheck__trace_ahci_dma_prepare_buf_fail(ptr noundef %s, i32 noundef %port) #0 {
entry:
  %s.addr = alloca ptr, align 8
  %port.addr = alloca i32, align 4
  %_now = alloca %struct.timeval, align 8
  store ptr %s, ptr %s.addr, align 8
  store i32 %port, ptr %port.addr, align 4
  %0 = load i32, ptr @trace_events_enabled_count, align 4
  %tobool = icmp ne i32 %0, 0
  %lnot = xor i1 %tobool, true
  %lnot1 = xor i1 %lnot, true
  %lnot.ext = zext i1 %lnot1 to i32
  %conv = sext i32 %lnot.ext to i64
  %tobool2 = icmp ne i64 %conv, 0
  br i1 %tobool2, label %land.lhs.true, label %if.end11

land.lhs.true:                                    ; preds = %entry
  %1 = load i16, ptr @_TRACE_AHCI_DMA_PREPARE_BUF_FAIL_DSTATE, align 2
  %conv3 = zext i16 %1 to i32
  %tobool4 = icmp ne i32 %conv3, 0
  br i1 %tobool4, label %land.lhs.true5, label %if.end11

land.lhs.true5:                                   ; preds = %land.lhs.true
  %call = call zeroext i1 @qemu_loglevel_mask(i32 noundef 32768)
  br i1 %call, label %if.then, label %if.end11

if.then:                                          ; preds = %land.lhs.true5
  %2 = load i8, ptr @message_with_timestamp, align 1
  %tobool7 = trunc i8 %2 to i1
  br i1 %tobool7, label %if.then8, label %if.else

if.then8:                                         ; preds = %if.then
  %call9 = call i32 @gettimeofday(ptr noundef %_now, ptr noundef null) #10
  %call10 = call i32 @qemu_get_thread_id()
  %tv_sec = getelementptr inbounds %struct.timeval, ptr %_now, i32 0, i32 0
  %3 = load i64, ptr %tv_sec, align 8
  %tv_usec = getelementptr inbounds %struct.timeval, ptr %_now, i32 0, i32 1
  %4 = load i64, ptr %tv_usec, align 8
  %5 = load ptr, ptr %s.addr, align 8
  %6 = load i32, ptr %port.addr, align 4
  call void (ptr, ...) @qemu_log(ptr noundef @.str.180, i32 noundef %call10, i64 noundef %3, i64 noundef %4, ptr noundef %5, i32 noundef %6)
  br label %if.end

if.else:                                          ; preds = %if.then
  %7 = load ptr, ptr %s.addr, align 8
  %8 = load i32, ptr %port.addr, align 4
  call void (ptr, ...) @qemu_log(ptr noundef @.str.181, ptr noundef %7, i32 noundef %8)
  br label %if.end

if.end:                                           ; preds = %if.else, %if.then8
  br label %if.end11

if.end11:                                         ; preds = %if.end, %land.lhs.true5, %land.lhs.true, %entry
  ret void
}

; Function Attrs: nounwind sspstrong uwtable
define internal void @trace_ahci_dma_prepare_buf(ptr noundef %s, i32 noundef %port, i32 noundef %io_buffer_size, i32 noundef %limit) #0 {
entry:
  %s.addr = alloca ptr, align 8
  %port.addr = alloca i32, align 4
  %io_buffer_size.addr = alloca i32, align 4
  %limit.addr = alloca i32, align 4
  store ptr %s, ptr %s.addr, align 8
  store i32 %port, ptr %port.addr, align 4
  store i32 %io_buffer_size, ptr %io_buffer_size.addr, align 4
  store i32 %limit, ptr %limit.addr, align 4
  %0 = load ptr, ptr %s.addr, align 8
  %1 = load i32, ptr %port.addr, align 4
  %2 = load i32, ptr %io_buffer_size.addr, align 4
  %3 = load i32, ptr %limit.addr, align 4
  call void @_nocheck__trace_ahci_dma_prepare_buf(ptr noundef %0, i32 noundef %1, i32 noundef %2, i32 noundef %3)
  ret void
}

; Function Attrs: nounwind sspstrong uwtable
define internal void @trace_ahci_dma_prepare_buf_fail(ptr noundef %s, i32 noundef %port) #0 {
entry:
  %s.addr = alloca ptr, align 8
  %port.addr = alloca i32, align 4
  store ptr %s, ptr %s.addr, align 8
  store i32 %port, ptr %port.addr, align 4
  %0 = load ptr, ptr %s.addr, align 8
  %1 = load i32, ptr %port.addr, align 4
  call void @_nocheck__trace_ahci_dma_prepare_buf_fail(ptr noundef %0, i32 noundef %1)
  ret void
}

; Function Attrs: nounwind sspstrong uwtable
define internal i32 @ahci_dma_prepare_buf(ptr noundef %dma, i32 noundef %limit) #0 {
entry:
  %retval = alloca i32, align 4
  %dma.addr = alloca ptr, align 8
  %limit.addr = alloca i32, align 4
  %ad = alloca ptr, align 8
  %tmp = alloca ptr, align 8
  %__mptr = alloca ptr, align 8
  %tmp1 = alloca ptr, align 8
  %s = alloca ptr, align 8
  store ptr %dma, ptr %dma.addr, align 8
  store i32 %limit, ptr %limit.addr, align 4
  %0 = load ptr, ptr %dma.addr, align 8
  store ptr %0, ptr %__mptr, align 8
  %1 = load ptr, ptr %__mptr, align 8
  %add.ptr = getelementptr i8, ptr %1, i64 0
  store ptr %add.ptr, ptr %tmp1, align 8
  %2 = load ptr, ptr %tmp1, align 8
  store ptr %2, ptr %tmp, align 8
  %3 = load ptr, ptr %tmp, align 8
  store ptr %3, ptr %ad, align 8
  %4 = load ptr, ptr %ad, align 8
  %port = getelementptr inbounds %struct.AHCIDevice, ptr %4, i32 0, i32 1
  %ifs = getelementptr inbounds %struct.IDEBus, ptr %port, i32 0, i32 3
  %arrayidx = getelementptr [2 x %struct.IDEState], ptr %ifs, i64 0, i64 0
  store ptr %arrayidx, ptr %s, align 8
  %5 = load ptr, ptr %ad, align 8
  %6 = load ptr, ptr %s, align 8
  %sg = getelementptr inbounds %struct.IDEState, ptr %6, i32 0, i32 53
  %7 = load ptr, ptr %ad, align 8
  %cur_cmd = getelementptr inbounds %struct.AHCIDevice, ptr %7, i32 0, i32 13
  %8 = load ptr, ptr %cur_cmd, align 8
  %9 = load i32, ptr %limit.addr, align 4
  %conv = sext i32 %9 to i64
  %10 = load ptr, ptr %s, align 8
  %io_buffer_offset = getelementptr inbounds %struct.IDEState, ptr %10, i32 0, i32 51
  %11 = load i64, ptr %io_buffer_offset, align 8
  %call = call i32 @ahci_populate_sglist(ptr noundef %5, ptr noundef %sg, ptr noundef %8, i64 noundef %conv, i64 noundef %11)
  %cmp = icmp eq i32 %call, -1
  br i1 %cmp, label %if.then, label %if.end

if.then:                                          ; preds = %entry
  %12 = load ptr, ptr %ad, align 8
  %hba = getelementptr inbounds %struct.AHCIDevice, ptr %12, i32 0, i32 6
  %13 = load ptr, ptr %hba, align 8
  %14 = load ptr, ptr %ad, align 8
  %port_no = getelementptr inbounds %struct.AHCIDevice, ptr %14, i32 0, i32 2
  %15 = load i32, ptr %port_no, align 8
  call void @trace_ahci_dma_prepare_buf_fail(ptr noundef %13, i32 noundef %15)
  store i32 -1, ptr %retval, align 4
  br label %return

if.end:                                           ; preds = %entry
  %16 = load ptr, ptr %s, align 8
  %sg3 = getelementptr inbounds %struct.IDEState, ptr %16, i32 0, i32 53
  %size = getelementptr inbounds %struct.QEMUSGList, ptr %sg3, i32 0, i32 3
  %17 = load i64, ptr %size, align 8
  %conv4 = trunc i64 %17 to i32
  %18 = load ptr, ptr %s, align 8
  %io_buffer_size = getelementptr inbounds %struct.IDEState, ptr %18, i32 0, i32 52
  store i32 %conv4, ptr %io_buffer_size, align 8
  %19 = load ptr, ptr %ad, align 8
  %hba5 = getelementptr inbounds %struct.AHCIDevice, ptr %19, i32 0, i32 6
  %20 = load ptr, ptr %hba5, align 8
  %21 = load ptr, ptr %ad, align 8
  %port_no6 = getelementptr inbounds %struct.AHCIDevice, ptr %21, i32 0, i32 2
  %22 = load i32, ptr %port_no6, align 8
  %23 = load i32, ptr %limit.addr, align 4
  %24 = load ptr, ptr %s, align 8
  %io_buffer_size7 = getelementptr inbounds %struct.IDEState, ptr %24, i32 0, i32 52
  %25 = load i32, ptr %io_buffer_size7, align 8
  call void @trace_ahci_dma_prepare_buf(ptr noundef %20, i32 noundef %22, i32 noundef %23, i32 noundef %25)
  %26 = load ptr, ptr %s, align 8
  %io_buffer_size8 = getelementptr inbounds %struct.IDEState, ptr %26, i32 0, i32 52
  %27 = load i32, ptr %io_buffer_size8, align 8
  store i32 %27, ptr %retval, align 4
  br label %return

return:                                           ; preds = %if.end, %if.then
  %28 = load i32, ptr %retval, align 4
  ret i32 %28
}