; Function Attrs: nounwind sspstrong uwtable
define internal i32 @ahci_dma_prepare_buf(ptr noundef %dma, i32 noundef %limit) #0 {
entry:
  %_now.i.i13 = alloca %struct.timeval, align 8
  %_now.i.i = alloca %struct.timeval, align 8
  %sg = getelementptr inbounds nuw i8, ptr %dma, i64 1008
  %cur_cmd = getelementptr inbounds nuw i8, ptr %dma, i64 2488
  %0 = load ptr, ptr %cur_cmd, align 8
  %conv = sext i32 %limit to i64
  %io_buffer_offset = getelementptr inbounds nuw i8, ptr %dma, i64 992
  %1 = load i64, ptr %io_buffer_offset, align 8
  %call = tail call fastcc i32 @ahci_populate_sglist(ptr noundef %dma, ptr noundef nonnull %sg, ptr noundef %0, i64 noundef %conv, i64 noundef %1)
  %cmp = icmp eq i32 %call, -1
  br i1 %cmp, label %if.then, label %if.end

if.then:                                          ; preds = %entry
  %hba = getelementptr inbounds nuw i8, ptr %dma, i64 2440
  %2 = load ptr, ptr %hba, align 8
  %port_no = getelementptr inbounds nuw i8, ptr %dma, i64 2360
  %3 = load i32, ptr %port_no, align 8
  call void @llvm.lifetime.start.p0(i64 16, ptr nonnull %_now.i.i)
  %4 = load i32, ptr @trace_events_enabled_count, align 4
  %tobool.i.i = icmp ne i32 %4, 0
  %5 = load i16, ptr @_TRACE_AHCI_DMA_PREPARE_BUF_FAIL_DSTATE, align 2
  %tobool4.i.i = icmp ne i16 %5, 0
  %or.cond.i.i = select i1 %tobool.i.i, i1 %tobool4.i.i, i1 false
  br i1 %or.cond.i.i, label %land.lhs.true5.i.i, label %trace_ahci_dma_prepare_buf_fail.exit

land.lhs.true5.i.i:                               ; preds = %if.then
  %6 = load i32, ptr @qemu_loglevel, align 4
  %and.i.i.i = and i32 %6, 32768
  %cmp.i.not.i.i = icmp eq i32 %and.i.i.i, 0
  br i1 %cmp.i.not.i.i, label %trace_ahci_dma_prepare_buf_fail.exit, label %if.then.i.i

if.then.i.i:                                      ; preds = %land.lhs.true5.i.i
  %7 = load i8, ptr @message_with_timestamp, align 1
  %tobool7.i.i = trunc i8 %7 to i1
  br i1 %tobool7.i.i, label %if.then8.i.i, label %if.else.i.i

if.then8.i.i:                                     ; preds = %if.then.i.i
  %call9.i.i = call i32 @gettimeofday(ptr noundef nonnull %_now.i.i, ptr noundef null) #12
  %call10.i.i = tail call i32 @qemu_get_thread_id() #12
  %8 = load i64, ptr %_now.i.i, align 8
  %tv_usec.i.i = getelementptr inbounds nuw i8, ptr %_now.i.i, i64 8
  %9 = load i64, ptr %tv_usec.i.i, align 8
  tail call void (ptr, ...) @qemu_log(ptr noundef nonnull @.str.180, i32 noundef %call10.i.i, i64 noundef %8, i64 noundef %9, ptr noundef %2, i32 noundef %3) #12
  br label %trace_ahci_dma_prepare_buf_fail.exit

if.else.i.i:                                      ; preds = %if.then.i.i
  tail call void (ptr, ...) @qemu_log(ptr noundef nonnull @.str.181, ptr noundef %2, i32 noundef %3) #12
  br label %trace_ahci_dma_prepare_buf_fail.exit

trace_ahci_dma_prepare_buf_fail.exit:             ; preds = %if.then, %land.lhs.true5.i.i, %if.then8.i.i, %if.else.i.i
  call void @llvm.lifetime.end.p0(i64 16, ptr nonnull %_now.i.i)
  br label %return

if.end:                                           ; preds = %entry
  %size = getelementptr inbounds nuw i8, ptr %dma, i64 1024
  %10 = load i64, ptr %size, align 8
  %conv4 = trunc i64 %10 to i32
  %io_buffer_size = getelementptr inbounds nuw i8, ptr %dma, i64 1000
  store i32 %conv4, ptr %io_buffer_size, align 8
  %hba5 = getelementptr inbounds nuw i8, ptr %dma, i64 2440
  %11 = load ptr, ptr %hba5, align 8
  %port_no6 = getelementptr inbounds nuw i8, ptr %dma, i64 2360
  %12 = load i32, ptr %port_no6, align 8
  call void @llvm.lifetime.start.p0(i64 16, ptr nonnull %_now.i.i13)
  %13 = load i32, ptr @trace_events_enabled_count, align 4
  %tobool.i.i14 = icmp ne i32 %13, 0
  %14 = load i16, ptr @_TRACE_AHCI_DMA_PREPARE_BUF_DSTATE, align 2
  %tobool4.i.i15 = icmp ne i16 %14, 0
  %or.cond.i.i16 = select i1 %tobool.i.i14, i1 %tobool4.i.i15, i1 false
  br i1 %or.cond.i.i16, label %land.lhs.true5.i.i17, label %trace_ahci_dma_prepare_buf.exit

land.lhs.true5.i.i17:                             ; preds = %if.end
  %15 = load i32, ptr @qemu_loglevel, align 4
  %and.i.i.i18 = and i32 %15, 32768
  %cmp.i.not.i.i19 = icmp eq i32 %and.i.i.i18, 0
  br i1 %cmp.i.not.i.i19, label %trace_ahci_dma_prepare_buf.exit, label %if.then.i.i20

if.then.i.i20:                                    ; preds = %land.lhs.true5.i.i17
  %16 = load i8, ptr @message_with_timestamp, align 1
  %tobool7.i.i21 = trunc i8 %16 to i1
  br i1 %tobool7.i.i21, label %if.then8.i.i23, label %if.else.i.i22

if.then8.i.i23:                                   ; preds = %if.then.i.i20
  %call9.i.i24 = call i32 @gettimeofday(ptr noundef nonnull %_now.i.i13, ptr noundef null) #12
  %call10.i.i25 = tail call i32 @qemu_get_thread_id() #12
  %17 = load i64, ptr %_now.i.i13, align 8
  %tv_usec.i.i26 = getelementptr inbounds nuw i8, ptr %_now.i.i13, i64 8
  %18 = load i64, ptr %tv_usec.i.i26, align 8
  tail call void (ptr, ...) @qemu_log(ptr noundef nonnull @.str.182, i32 noundef %call10.i.i25, i64 noundef %17, i64 noundef %18, ptr noundef %11, i32 noundef %12, i32 noundef %limit, i32 noundef %conv4) #12
  br label %trace_ahci_dma_prepare_buf.exit

if.else.i.i22:                                    ; preds = %if.then.i.i20
  tail call void (ptr, ...) @qemu_log(ptr noundef nonnull @.str.183, ptr noundef %11, i32 noundef %12, i32 noundef %limit, i32 noundef %conv4) #12
  br label %trace_ahci_dma_prepare_buf.exit

trace_ahci_dma_prepare_buf.exit:                  ; preds = %if.end, %land.lhs.true5.i.i17, %if.then8.i.i23, %if.else.i.i22
  call void @llvm.lifetime.end.p0(i64 16, ptr nonnull %_now.i.i13)
  %19 = load i32, ptr %io_buffer_size, align 8
  br label %return

return:                                           ; preds = %trace_ahci_dma_prepare_buf.exit, %trace_ahci_dma_prepare_buf_fail.exit
  %retval.0 = phi i32 [ -1, %trace_ahci_dma_prepare_buf_fail.exit ], [ %19, %trace_ahci_dma_prepare_buf.exit ]
  ret i32 %retval.0
}